; Function Attrs: nounwind uwtable
define dso_local void @quicklistAppendPlainNode(ptr noundef captures(none) %0, ptr noundef %1, i64 noundef %2) local_unnamed_addr #1 {
  %4 = tail call noalias dereferenceable_or_null(40) ptr @zmalloc(i64 noundef 40) #22
  %5 = getelementptr inbounds nuw i8, ptr %4, i64 16
  %6 = getelementptr inbounds nuw i8, ptr %4, i64 32
  %7 = load i32, ptr %6, align 8
  %8 = getelementptr inbounds nuw i8, ptr %4, i64 24
  %9 = and i32 %7, -6291456
  tail call void @llvm.memset.p0.i64(ptr noundef nonnull align 8 dereferenceable(16) %4, i8 0, i64 16, i1 false)
  store ptr %1, ptr %5, align 8, !tbaa !9
  store i64 %2, ptr %8, align 8, !tbaa !15
  %10 = or disjoint i32 %9, 327681
  store i32 %10, ptr %6, align 8
  %11 = getelementptr inbounds nuw i8, ptr %0, i64 8
  %12 = load ptr, ptr %11, align 8, !tbaa !16
  tail call void @__quicklistInsertNode(ptr noundef %0, ptr noundef %12, ptr noundef nonnull %4, i32 noundef 1)
  %13 = load i32, ptr %6, align 8
  %14 = and i32 %13, 65535
  %15 = zext nneg i32 %14 to i64
  %16 = getelementptr inbounds nuw i8, ptr %0, i64 16
  %17 = load i64, ptr %16, align 8, !tbaa !5
  %18 = add i64 %17, %15
  store i64 %18, ptr %16, align 8, !tbaa !5
  ret void
}